; ModuleID = '20/324.c'
source_filename = "20/324.c"
target datalayout = "e-m:e-p270:32:32-p271:32:32-p272:64:64-i64:64-f80:128-n8:16:32:64-S128"
target triple = "x86_64-pc-linux-gnu"

@.str = private unnamed_addr constant [3 x i8] c"%s\00", align 1
@.str.1 = private unnamed_addr constant [3 x i8] c"%c\00", align 1
@.str.2 = private unnamed_addr constant [2 x i8] c"\0A\00", align 1

; Function Attrs: noinline nounwind uwtable
define dso_local i32 @main() #0 {
  %1 = alloca i32, align 4
  %2 = alloca i32, align 4
  %3 = alloca i32, align 4
  %4 = alloca i32, align 4
  %5 = alloca i32, align 4
  %6 = alloca [11 x i8], align 1
  %7 = alloca [4 x i8], align 1
  %8 = alloca i8, align 1
  %9 = alloca [1 x i8], align 1
  store i32 0, i32* %1, align 4
  %10 = bitcast [1 x i8]* %9 to i8*
  call void @llvm.memset.p0i8.i64(i8* align 1 %10, i8 0, i64 1, i1 false)
  %11 = getelementptr inbounds [11 x i8], [11 x i8]* %6, i64 0, i64 0
  %12 = call i32 (i8*, ...) @__isoc99_scanf(i8* getelementptr inbounds ([3 x i8], [3 x i8]* @.str, i64 0, i64 0), i8* %11)
  %13 = getelementptr inbounds [4 x i8], [4 x i8]* %7, i64 0, i64 0
  %14 = call i32 (i8*, ...) @__isoc99_scanf(i8* getelementptr inbounds ([3 x i8], [3 x i8]* @.str, i64 0, i64 0), i8* %13)
  %15 = call i32 @getchar()
  %16 = trunc i32 %15 to i8
  store i8 %16, i8* %8, align 1
  %17 = getelementptr inbounds [11 x i8], [11 x i8]* %6, i64 0, i64 0
  %18 = call i64 @strlen(i8* %17) #5
  %19 = trunc i64 %18 to i32
  store i32 %19, i32* %2, align 4
  br label %20

20:                                               ; preds = %87, %0
  %21 = load i8, i8* %8, align 1
  %22 = sext i8 %21 to i32
  %23 = icmp ne i32 %22, 0
  br i1 %23, label %24, label %27

24:                                               ; preds = %20
  %25 = load i32, i32* %2, align 4
  %26 = icmp ne i32 %25, 0
  br label %27

27:                                               ; preds = %24, %20
  %28 = phi i1 [ false, %20 ], [ %26, %24 ]
  br i1 %28, label %29, label %101

29:                                               ; preds = %27
  store i32 0, i32* %3, align 4
  store i32 0, i32* %4, align 4
  store i32 0, i32* %5, align 4
  br label %30

30:                                               ; preds = %50, %29
  %31 = load i32, i32* %5, align 4
  %32 = load i32, i32* %2, align 4
  %33 = icmp slt i32 %31, %32
  br i1 %33, label %34, label %53

34:                                               ; preds = %30
  %35 = load i32, i32* %5, align 4
  %36 = sext i32 %35 to i64
  %37 = getelementptr inbounds [11 x i8], [11 x i8]* %6, i64 0, i64 %36
  %38 = load i8, i8* %37, align 1
  %39 = sext i8 %38 to i32
  %40 = load i32, i32* %3, align 4
  %41 = icmp sgt i32 %39, %40
  br i1 %41, label %42, label %49

42:                                               ; preds = %34
  %43 = load i32, i32* %5, align 4
  %44 = sext i32 %43 to i64
  %45 = getelementptr inbounds [11 x i8], [11 x i8]* %6, i64 0, i64 %44
  %46 = load i8, i8* %45, align 1
  %47 = sext i8 %46 to i32
  store i32 %47, i32* %3, align 4
  %48 = load i32, i32* %5, align 4
  store i32 %48, i32* %4, align 4
  br label %49

49:                                               ; preds = %42, %34
  br label %50

50:                                               ; preds = %49
  %51 = load i32, i32* %5, align 4
  %52 = add nsw i32 %51, 1
  store i32 %52, i32* %5, align 4
  br label %30

53:                                               ; preds = %30
  store i32 0, i32* %5, align 4
  br label %54

54:                                               ; preds = %65, %53
  %55 = load i32, i32* %5, align 4
  %56 = load i32, i32* %4, align 4
  %57 = icmp sle i32 %55, %56
  br i1 %57, label %58, label %68

58:                                               ; preds = %54
  %59 = load i32, i32* %5, align 4
  %60 = sext i32 %59 to i64
  %61 = getelementptr inbounds [11 x i8], [11 x i8]* %6, i64 0, i64 %60
  %62 = load i8, i8* %61, align 1
  %63 = sext i8 %62 to i32
  %64 = call i32 (i8*, ...) @printf(i8* getelementptr inbounds ([3 x i8], [3 x i8]* @.str.1, i64 0, i64 0), i32 %63)
  br label %65

65:                                               ; preds = %58
  %66 = load i32, i32* %5, align 4
  %67 = add nsw i32 %66, 1
  store i32 %67, i32* %5, align 4
  br label %54

68:                                               ; preds = %54
  %69 = getelementptr inbounds [4 x i8], [4 x i8]* %7, i64 0, i64 0
  %70 = call i32 (i8*, ...) @printf(i8* getelementptr inbounds ([3 x i8], [3 x i8]* @.str, i64 0, i64 0), i8* %69)
  %71 = load i32, i32* %4, align 4
  %72 = add nsw i32 %71, 1
  store i32 %72, i32* %5, align 4
  br label %73

73:                                               ; preds = %84, %68
  %74 = load i32, i32* %5, align 4
  %75 = load i32, i32* %2, align 4
  %76 = icmp slt i32 %74, %75
  br i1 %76, label %77, label %87

77:                                               ; preds = %73
  %78 = load i32, i32* %5, align 4
  %79 = sext i32 %78 to i64
  %80 = getelementptr inbounds [11 x i8], [11 x i8]* %6, i64 0, i64 %79
  %81 = load i8, i8* %80, align 1
  %82 = sext i8 %81 to i32
  %83 = call i32 (i8*, ...) @printf(i8* getelementptr inbounds ([3 x i8], [3 x i8]* @.str.1, i64 0, i64 0), i32 %82)
  br label %84

84:                                               ; preds = %77
  %85 = load i32, i32* %5, align 4
  %86 = add nsw i32 %85, 1
  store i32 %86, i32* %5, align 4
  br label %73

87:                                               ; preds = %73
  %88 = call i32 (i8*, ...) @printf(i8* getelementptr inbounds ([2 x i8], [2 x i8]* @.str.2, i64 0, i64 0))
  %89 = getelementptr inbounds [11 x i8], [11 x i8]* %6, i64 0, i64 0
  %90 = getelementptr inbounds [1 x i8], [1 x i8]* %9, i64 0, i64 0
  %91 = call i8* @strcpy(i8* %89, i8* %90) #6
  %92 = getelementptr inbounds [11 x i8], [11 x i8]* %6, i64 0, i64 0
  %93 = call i32 (i8*, ...) @__isoc99_scanf(i8* getelementptr inbounds ([3 x i8], [3 x i8]* @.str, i64 0, i64 0), i8* %92)
  %94 = getelementptr inbounds [4 x i8], [4 x i8]* %7, i64 0, i64 0
  %95 = call i32 (i8*, ...) @__isoc99_scanf(i8* getelementptr inbounds ([3 x i8], [3 x i8]* @.str, i64 0, i64 0), i8* %94)
  %96 = call i32 @getchar()
  %97 = trunc i32 %96 to i8
  store i8 %97, i8* %8, align 1
  %98 = getelementptr inbounds [11 x i8], [11 x i8]* %6, i64 0, i64 0
  %99 = call i64 @strlen(i8* %98) #5
  %100 = trunc i64 %99 to i32
  store i32 %100, i32* %2, align 4
  br label %20

101:                                              ; preds = %27
  %102 = load i32, i32* %1, align 4
  ret i32 %102
}

; Function Attrs: argmemonly nounwind willreturn
declare void @llvm.memset.p0i8.i64(i8* nocapture writeonly, i8, i64, i1 immarg) #1

declare dso_local i32 @__isoc99_scanf(i8*, ...) #2

declare dso_local i32 @getchar() #2

; Function Attrs: nounwind readonly
declare dso_local i64 @strlen(i8*) #3

declare dso_local i32 @printf(i8*, ...) #2

; Function Attrs: nounwind
declare dso_local i8* @strcpy(i8*, i8*) #4


!llvm.module.flags = !{!0}
!llvm.ident = !{!1}

!0 = !{i32 1, !"wchar_size", i32 4}
!1 = !{!"clang version 10.0.0-4ubuntu1 "}
